; Function Attrs: nounwind uwtable
define dso_local noundef i64 @ZSTD_freeCDict(ptr noundef %0) local_unnamed_addr #1 {
  %2 = icmp eq ptr %0, null
  br i1 %2, label %ZSTD_customFree.exit, label %3

3:                                                ; preds = %1
  %.sroa.1.0..sroa_idx = getelementptr inbounds nuw i8, ptr %0, i64 6048
  %.sroa.1.0.copyload = load ptr, ptr %.sroa.1.0..sroa_idx, align 8
  %.sroa.3.0..sroa_idx = getelementptr inbounds nuw i8, ptr %0, i64 6056
  %.sroa.3.0.copyload = load ptr, ptr %.sroa.3.0..sroa_idx, align 8
  %4 = getelementptr inbounds nuw i8, ptr %0, i64 32
  %5 = load ptr, ptr %4, align 8
  %.not.i = icmp ugt ptr %5, %0
  br i1 %.not.i, label %ZSTD_cwksp_owns_buffer.exit, label %6

6:                                                ; preds = %3
  %7 = getelementptr inbounds nuw i8, ptr %0, i64 40
  %8 = load ptr, ptr %7, align 8
  %9 = icmp uge ptr %0, %8
  br label %ZSTD_cwksp_owns_buffer.exit

ZSTD_cwksp_owns_buffer.exit:                      ; preds = %3, %6
  %.not = phi i1 [ true, %3 ], [ %9, %6 ]
  tail call void @llvm.memset.p0.i64(ptr noundef nonnull align 8 dereferenceable(72) %4, i8 0, i64 72, i1 false)
  %.not.i.i = icmp eq ptr %5, null
  br i1 %.not.i.i, label %ZSTD_cwksp_free.exit, label %10

10:                                               ; preds = %ZSTD_cwksp_owns_buffer.exit
  %.not4.i.i = icmp eq ptr %.sroa.1.0.copyload, null
  br i1 %.not4.i.i, label %ZSTD_cwksp_free.exit.thread, label %11

11:                                               ; preds = %10
  tail call void %.sroa.1.0.copyload(ptr noundef %.sroa.3.0.copyload, ptr noundef nonnull %5) #27
  br label %ZSTD_cwksp_free.exit

ZSTD_cwksp_free.exit:                             ; preds = %ZSTD_cwksp_owns_buffer.exit, %11
  br i1 %.not, label %12, label %ZSTD_customFree.exit

ZSTD_cwksp_free.exit.thread:                      ; preds = %10
  tail call void @free(ptr noundef nonnull %5) #27
  br i1 %.not, label %.thread, label %ZSTD_customFree.exit

12:                                               ; preds = %ZSTD_cwksp_free.exit
  %.not4.i = icmp eq ptr %.sroa.1.0.copyload, null
  br i1 %.not4.i, label %.thread, label %13

13:                                               ; preds = %12
  tail call void %.sroa.1.0.copyload(ptr noundef %.sroa.3.0.copyload, ptr noundef nonnull %0) #27
  br label %ZSTD_customFree.exit

.thread:                                          ; preds = %ZSTD_cwksp_free.exit.thread, %12
  tail call void @free(ptr noundef nonnull %0) #27
  br label %ZSTD_customFree.exit

ZSTD_customFree.exit:                             ; preds = %.thread, %13, %ZSTD_cwksp_free.exit.thread, %ZSTD_cwksp_free.exit, %1
  ret i64 0
}